target datalayout = "e-m:e-p270:32:32-p271:32:32-p272:64:64-i64:64-i128:128-f80:128-n8:16:32:64-S128"
target triple = "x86_64-pc-linux-gnu"

%struct.strbuf = type { i64, i64, ptr }
%struct.dir_struct = type { i32, i32, i32, ptr, ptr, ptr, ptr, %struct.dir_struct_internal }
%struct.dir_struct_internal = type { i32, i32, [3 x %struct.exclude_list_group], ptr, ptr, %struct.strbuf, %struct.oid_stat, %struct.oid_stat, i32, i32, i32 }
%struct.exclude_list_group = type { i32, i32, ptr }
%struct.oid_stat = type { %struct.stat_data, %struct.object_id, i32 }
%struct.stat_data = type { %struct.cache_time, %struct.cache_time, i32, i32, i32, i32, i32 }
%struct.cache_time = type { i32, i32 }
%struct.object_id = type { [32 x i8], i32 }

@check_ignore_usage = internal constant [3 x ptr] [ptr @.str.21, ptr @.str.22, ptr null], align 16
@stdin_paths = internal global i32 0, align 4
@.str = private unnamed_addr constant [38 x i8] c"cannot specify pathnames with --stdin\00", align 1
@nul_term_line = internal global i32 0, align 4
@.str.1 = private unnamed_addr constant [33 x i8] c"-z only makes sense with --stdin\00", align 1
@.str.2 = private unnamed_addr constant [18 x i8] c"no path specified\00", align 1
@quiet = internal global i32 0, align 4
@.str.3 = private unnamed_addr constant [45 x i8] c"--quiet is only valid with a single pathname\00", align 1
@verbose = internal global i32 0, align 4
@.str.4 = private unnamed_addr constant [39 x i8] c"cannot have both --quiet and --verbose\00", align 1
@show_non_matching = internal global i32 0, align 4
@.str.5 = private unnamed_addr constant [44 x i8] c"--non-matching is only valid with --verbose\00", align 1
@no_index = internal global i32 0, align 4
@the_repository = external global ptr, align 8
@.str.6 = private unnamed_addr constant [19 x i8] c"index file corrupt\00", align 1
@stdout = external global ptr, align 8
@.str.7 = private unnamed_addr constant [17 x i8] c"ignore to stdout\00", align 1
@strbuf_slopbuf = external global [0 x i8], align 1
@__const.check_ignore_stdin_paths.buf = private unnamed_addr constant %struct.strbuf { i64 0, i64 0, ptr @strbuf_slopbuf }, align 8
@__const.check_ignore_stdin_paths.unquoted = private unnamed_addr constant %struct.strbuf { i64 0, i64 0, ptr @strbuf_slopbuf }, align 8
@stdin = external global ptr, align 8
@.str.23 = private unnamed_addr constant [21 x i8] c"line is badly quoted\00", align 1
@.str.24 = private unnamed_addr constant [23 x i8] c"check-ignore to stdout\00", align 1
@.str.25 = private unnamed_addr constant [11 x i8] c"./strbuf.h\00", align 1
@.str.26 = private unnamed_addr constant [30 x i8] c"strbuf_setlen() beyond buffer\00", align 1

; Function Attrs: inlinehint nounwind uwtable
define internal void @strbuf_swap(ptr noundef %0, ptr noundef %1) #3 {
  %3 = alloca ptr, align 8
  %4 = alloca ptr, align 8
  %5 = alloca ptr, align 8
  %6 = alloca ptr, align 8
  %7 = alloca [24 x i8], align 16
  store ptr %0, ptr %3, align 8, !tbaa !56
  store ptr %1, ptr %4, align 8, !tbaa !56
  br label %8

8:                                                ; preds = %2
  call void @llvm.lifetime.start.p0(i64 8, ptr %5) #8
  %9 = load ptr, ptr %3, align 8, !tbaa !56
  store ptr %9, ptr %5, align 8, !tbaa !17
  call void @llvm.lifetime.start.p0(i64 8, ptr %6) #8
  %10 = load ptr, ptr %4, align 8, !tbaa !56
  store ptr %10, ptr %6, align 8, !tbaa !17
  call void @llvm.lifetime.start.p0(i64 24, ptr %7) #8
  %11 = getelementptr inbounds [24 x i8], ptr %7, i64 0, i64 0
  %12 = load ptr, ptr %5, align 8, !tbaa !17
  call void @llvm.memcpy.p0.p0.i64(ptr align 16 %11, ptr align 1 %12, i64 24, i1 false)
  %13 = load ptr, ptr %5, align 8, !tbaa !17
  %14 = load ptr, ptr %6, align 8, !tbaa !17
  call void @llvm.memcpy.p0.p0.i64(ptr align 1 %13, ptr align 1 %14, i64 24, i1 false)
  %15 = load ptr, ptr %6, align 8, !tbaa !17
  %16 = getelementptr inbounds [24 x i8], ptr %7, i64 0, i64 0
  call void @llvm.memcpy.p0.p0.i64(ptr align 1 %15, ptr align 16 %16, i64 24, i1 false)
  call void @llvm.lifetime.end.p0(i64 24, ptr %7) #8
  call void @llvm.lifetime.end.p0(i64 8, ptr %6) #8
  call void @llvm.lifetime.end.p0(i64 8, ptr %5) #8
  br label %17

17:                                               ; preds = %8
  ret void
}

; Function Attrs: inlinehint nounwind uwtable
define internal void @strbuf_setlen(ptr noundef %0, i64 noundef %1) #3 {
  %3 = alloca ptr, align 8
  %4 = alloca i64, align 8
  store ptr %0, ptr %3, align 8, !tbaa !56
  store i64 %1, ptr %4, align 8, !tbaa !58
  %5 = load i64, ptr %4, align 8, !tbaa !58
  %6 = load ptr, ptr %3, align 8, !tbaa !56
  %7 = getelementptr inbounds nuw %struct.strbuf, ptr %6, i32 0, i32 0
  %8 = load i64, ptr %7, align 8, !tbaa !59
  %9 = icmp ne i64 %8, 0
  br i1 %9, label %10, label %15

10:                                               ; preds = %2
  %11 = load ptr, ptr %3, align 8, !tbaa !56
  %12 = getelementptr inbounds nuw %struct.strbuf, ptr %11, i32 0, i32 0
  %13 = load i64, ptr %12, align 8, !tbaa !59
  %14 = sub i64 %13, 1
  br label %16

15:                                               ; preds = %2
  br label %16

16:                                               ; preds = %15, %10
  %17 = phi i64 [ %14, %10 ], [ 0, %15 ]
  %18 = icmp ugt i64 %5, %17
  br i1 %18, label %19, label %20

19:                                               ; preds = %16
  call void (ptr, i32, ptr, ...) @BUG_fl(ptr noundef @.str.25, i32 noundef 167, ptr noundef @.str.26) #9
  unreachable

20:                                               ; preds = %16
  %21 = load i64, ptr %4, align 8, !tbaa !58
  %22 = load ptr, ptr %3, align 8, !tbaa !56
  %23 = getelementptr inbounds nuw %struct.strbuf, ptr %22, i32 0, i32 1
  store i64 %21, ptr %23, align 8, !tbaa !60
  %24 = load ptr, ptr %3, align 8, !tbaa !56
  %25 = getelementptr inbounds nuw %struct.strbuf, ptr %24, i32 0, i32 2
  %26 = load ptr, ptr %25, align 8, !tbaa !21
  %27 = icmp ne ptr %26, @strbuf_slopbuf
  br i1 %27, label %28, label %34

28:                                               ; preds = %20
  %29 = load ptr, ptr %3, align 8, !tbaa !56
  %30 = getelementptr inbounds nuw %struct.strbuf, ptr %29, i32 0, i32 2
  %31 = load ptr, ptr %30, align 8, !tbaa !21
  %32 = load i64, ptr %4, align 8, !tbaa !58
  %33 = getelementptr inbounds nuw i8, ptr %31, i64 %32
  store i8 0, ptr %33, align 1, !tbaa !18
  br label %35

34:                                               ; preds = %20
  br label %35

35:                                               ; preds = %34, %28
  ret void
}

; Function Attrs: nounwind uwtable
define internal i32 @check_ignore_stdin_paths(ptr noundef %0, ptr noundef %1) #0 {
  %3 = alloca ptr, align 8
  %4 = alloca ptr, align 8
  %5 = alloca %struct.strbuf, align 8
  %6 = alloca %struct.strbuf, align 8
  %7 = alloca [2 x ptr], align 16
  %8 = alloca ptr, align 8
  %9 = alloca i32, align 4
  store ptr %0, ptr %3, align 8, !tbaa !19
  store ptr %1, ptr %4, align 8, !tbaa !11
  call void @llvm.lifetime.start.p0(i64 24, ptr %5) #8
  call void @llvm.memcpy.p0.p0.i64(ptr align 8 %5, ptr align 8 @__const.check_ignore_stdin_paths.buf, i64 24, i1 false)
  call void @llvm.lifetime.start.p0(i64 24, ptr %6) #8
  call void @llvm.memcpy.p0.p0.i64(ptr align 8 %6, ptr align 8 @__const.check_ignore_stdin_paths.unquoted, i64 24, i1 false)
  call void @llvm.lifetime.start.p0(i64 16, ptr %7) #8
  call void @llvm.memset.p0.i64(ptr align 16 %7, i8 0, i64 16, i1 false)
  call void @llvm.lifetime.start.p0(i64 8, ptr %8) #8
  call void @llvm.lifetime.start.p0(i64 4, ptr %9) #8
  store i32 0, ptr %9, align 4, !tbaa !4
  %10 = load i32, ptr @nul_term_line, align 4, !tbaa !4
  %11 = icmp ne i32 %10, 0
  %12 = select i1 %11, ptr @strbuf_getline_nul, ptr @strbuf_getline_lf
  store ptr %12, ptr %8, align 8, !tbaa !17
  br label %13

13:                                               ; preds = %35, %2
  %14 = load ptr, ptr %8, align 8, !tbaa !17
  %15 = load ptr, ptr @stdin, align 8, !tbaa !15
  %16 = call i32 %14(ptr noundef %5, ptr noundef %15)
  %17 = icmp ne i32 %16, -1
  br i1 %17, label %18, label %46

18:                                               ; preds = %13
  %19 = load i32, ptr @nul_term_line, align 4, !tbaa !4
  %20 = icmp ne i32 %19, 0
  br i1 %20, label %35, label %21

21:                                               ; preds = %18
  %22 = getelementptr inbounds nuw %struct.strbuf, ptr %5, i32 0, i32 2
  %23 = load ptr, ptr %22, align 8, !tbaa !21
  %24 = getelementptr inbounds i8, ptr %23, i64 0
  %25 = load i8, ptr %24, align 1, !tbaa !18
  %26 = sext i8 %25 to i32
  %27 = icmp eq i32 %26, 34
  br i1 %27, label %28, label %35

28:                                               ; preds = %21
  call void @strbuf_setlen(ptr noundef %6, i64 noundef 0)
  %29 = getelementptr inbounds nuw %struct.strbuf, ptr %5, i32 0, i32 2
  %30 = load ptr, ptr %29, align 8, !tbaa !21
  %31 = call i32 @unquote_c_style(ptr noundef %6, ptr noundef %30, ptr noundef null)
  %32 = icmp ne i32 %31, 0
  br i1 %32, label %33, label %34

33:                                               ; preds = %28
  call void (ptr, ...) @die(ptr noundef @.str.23) #9
  unreachable

34:                                               ; preds = %28
  call void @strbuf_swap(ptr noundef %5, ptr noundef %6)
  br label %35

35:                                               ; preds = %34, %21, %18
  %36 = getelementptr inbounds nuw %struct.strbuf, ptr %5, i32 0, i32 2
  %37 = load ptr, ptr %36, align 8, !tbaa !21
  %38 = getelementptr inbounds [2 x ptr], ptr %7, i64 0, i64 0
  store ptr %37, ptr %38, align 16, !tbaa !11
  %39 = load ptr, ptr %3, align 8, !tbaa !19
  %40 = load ptr, ptr %4, align 8, !tbaa !11
  %41 = getelementptr inbounds [2 x ptr], ptr %7, i64 0, i64 0
  %42 = call i32 @check_ignore(ptr noundef %39, ptr noundef %40, i32 noundef 1, ptr noundef %41)
  %43 = load i32, ptr %9, align 4, !tbaa !4
  %44 = add nsw i32 %43, %42
  store i32 %44, ptr %9, align 4, !tbaa !4
  %45 = load ptr, ptr @stdout, align 8, !tbaa !15
  call void @maybe_flush_or_die(ptr noundef %45, ptr noundef @.str.24)
  br label %13, !llvm.loop !24

46:                                               ; preds = %13
  call void @strbuf_release(ptr noundef %5)
  call void @strbuf_release(ptr noundef %6)
  %47 = load i32, ptr %9, align 4, !tbaa !4
  call void @llvm.lifetime.end.p0(i64 4, ptr %9) #8
  call void @llvm.lifetime.end.p0(i64 8, ptr %8) #8
  call void @llvm.lifetime.end.p0(i64 16, ptr %7) #8
  call void @llvm.lifetime.end.p0(i64 24, ptr %6) #8
  call void @llvm.lifetime.end.p0(i64 24, ptr %5) #8
  ret i32 %47
}

; Function Attrs: inlinehint nounwind uwtable
define internal void @git_config(ptr noundef %0, ptr noundef %1) #3 {
  %3 = alloca ptr, align 8
  %4 = alloca ptr, align 8
  store ptr %0, ptr %3, align 8, !tbaa !17
  store ptr %1, ptr %4, align 8, !tbaa !17
  %5 = load ptr, ptr @the_repository, align 8, !tbaa !13
  %6 = load ptr, ptr %3, align 8, !tbaa !17
  %7 = load ptr, ptr %4, align 8, !tbaa !17
  call void @repo_config(ptr noundef %5, ptr noundef %6, ptr noundef %7)
  ret void
}

; Function Attrs: nounwind uwtable
define dso_local i32 @cmd_check_ignore(i32 noundef %0, ptr noundef %1, ptr noundef %2, ptr noundef %3) #0 {
  %5 = alloca i32, align 4
  %6 = alloca ptr, align 8
  %7 = alloca ptr, align 8
  %8 = alloca ptr, align 8
  %9 = alloca i32, align 4
  %10 = alloca %struct.dir_struct, align 8
  store i32 %0, ptr %5, align 4, !tbaa !4
  store ptr %1, ptr %6, align 8, !tbaa !8
  store ptr %2, ptr %7, align 8, !tbaa !11
  store ptr %3, ptr %8, align 8, !tbaa !13
  call void @llvm.lifetime.start.p0(i64 4, ptr %9) #8
  call void @llvm.lifetime.start.p0(i64 312, ptr %10) #8
  call void @llvm.memset.p0.i64(ptr align 8 %10, i8 0, i64 312, i1 false)
  call void @git_config(ptr noundef @git_default_config, ptr noundef null)
  %11 = load i32, ptr %5, align 4, !tbaa !4
  %12 = load ptr, ptr %6, align 8, !tbaa !8
  %13 = load ptr, ptr %7, align 8, !tbaa !11
  %14 = call i32 @parse_options(i32 noundef %11, ptr noundef %12, ptr noundef %13, ptr noundef @check_ignore_options, ptr noundef @check_ignore_usage, i32 noundef 0)
  store i32 %14, ptr %5, align 4, !tbaa !4
  %15 = load i32, ptr @stdin_paths, align 4, !tbaa !4
  %16 = icmp ne i32 %15, 0
  br i1 %16, label %17, label %23

17:                                               ; preds = %4
  %18 = load i32, ptr %5, align 4, !tbaa !4
  %19 = icmp sgt i32 %18, 0
  br i1 %19, label %20, label %22

20:                                               ; preds = %17
  %21 = call ptr @_(ptr noundef @.str)
  call void (ptr, ...) @die(ptr noundef %21) #9
  unreachable

22:                                               ; preds = %17
  br label %34

23:                                               ; preds = %4
  %24 = load i32, ptr @nul_term_line, align 4, !tbaa !4
  %25 = icmp ne i32 %24, 0
  br i1 %25, label %26, label %28

26:                                               ; preds = %23
  %27 = call ptr @_(ptr noundef @.str.1)
  call void (ptr, ...) @die(ptr noundef %27) #9
  unreachable

28:                                               ; preds = %23
  %29 = load i32, ptr %5, align 4, !tbaa !4
  %30 = icmp eq i32 %29, 0
  br i1 %30, label %31, label %33

31:                                               ; preds = %28
  %32 = call ptr @_(ptr noundef @.str.2)
  call void (ptr, ...) @die(ptr noundef %32) #9
  unreachable

33:                                               ; preds = %28
  br label %34

34:                                               ; preds = %33, %22
  %35 = load i32, ptr @quiet, align 4, !tbaa !4
  %36 = icmp ne i32 %35, 0
  br i1 %36, label %37, label %48

37:                                               ; preds = %34
  %38 = load i32, ptr %5, align 4, !tbaa !4
  %39 = icmp sgt i32 %38, 1
  br i1 %39, label %40, label %42

40:                                               ; preds = %37
  %41 = call ptr @_(ptr noundef @.str.3)
  call void (ptr, ...) @die(ptr noundef %41) #9
  unreachable

42:                                               ; preds = %37
  %43 = load i32, ptr @verbose, align 4, !tbaa !4
  %44 = icmp ne i32 %43, 0
  br i1 %44, label %45, label %47

45:                                               ; preds = %42
  %46 = call ptr @_(ptr noundef @.str.4)
  call void (ptr, ...) @die(ptr noundef %46) #9
  unreachable

47:                                               ; preds = %42
  br label %48

48:                                               ; preds = %47, %34
  %49 = load i32, ptr @show_non_matching, align 4, !tbaa !4
  %50 = icmp ne i32 %49, 0
  br i1 %50, label %51, label %56

51:                                               ; preds = %48
  %52 = load i32, ptr @verbose, align 4, !tbaa !4
  %53 = icmp ne i32 %52, 0
  br i1 %53, label %56, label %54

54:                                               ; preds = %51
  %55 = call ptr @_(ptr noundef @.str.5)
  call void (ptr, ...) @die(ptr noundef %55) #9
  unreachable

56:                                               ; preds = %51, %48
  %57 = load i32, ptr @no_index, align 4, !tbaa !4
  %58 = icmp ne i32 %57, 0
  br i1 %58, label %65, label %59

59:                                               ; preds = %56
  %60 = load ptr, ptr @the_repository, align 8, !tbaa !13
  %61 = call i32 @repo_read_index(ptr noundef %60)
  %62 = icmp slt i32 %61, 0
  br i1 %62, label %63, label %65

63:                                               ; preds = %59
  %64 = call ptr @_(ptr noundef @.str.6)
  call void (ptr, ...) @die(ptr noundef %64) #9
  unreachable

65:                                               ; preds = %59, %56
  call void @setup_standard_excludes(ptr noundef %10)
  %66 = load i32, ptr @stdin_paths, align 4, !tbaa !4
  %67 = icmp ne i32 %66, 0
  br i1 %67, label %68, label %71

68:                                               ; preds = %65
  %69 = load ptr, ptr %7, align 8, !tbaa !11
  %70 = call i32 @check_ignore_stdin_paths(ptr noundef %10, ptr noundef %69)
  store i32 %70, ptr %9, align 4, !tbaa !4
  br label %77

71:                                               ; preds = %65
  %72 = load ptr, ptr %7, align 8, !tbaa !11
  %73 = load i32, ptr %5, align 4, !tbaa !4
  %74 = load ptr, ptr %6, align 8, !tbaa !8
  %75 = call i32 @check_ignore(ptr noundef %10, ptr noundef %72, i32 noundef %73, ptr noundef %74)
  store i32 %75, ptr %9, align 4, !tbaa !4
  %76 = load ptr, ptr @stdout, align 8, !tbaa !15
  call void @maybe_flush_or_die(ptr noundef %76, ptr noundef @.str.7)
  br label %77

77:                                               ; preds = %71, %68
  call void @dir_clear(ptr noundef %10)
  %78 = load i32, ptr %9, align 4, !tbaa !4
  %79 = icmp ne i32 %78, 0
  %80 = xor i1 %79, true
  %81 = zext i1 %80 to i32
  call void @llvm.lifetime.end.p0(i64 312, ptr %10) #8
  call void @llvm.lifetime.end.p0(i64 4, ptr %9) #8
  ret i32 %81
}