; Function Attrs: nounwind uwtable
define dso_local range(i32 0, 2) i32 @cmd_check_ignore(i32 noundef %0, ptr noundef %1, ptr noundef %2, ptr noundef readnone captures(none) %3) local_unnamed_addr #0 {
  %5 = alloca [24 x i8], align 16
  %6 = alloca %struct.strbuf, align 8
  %7 = alloca %struct.strbuf, align 8
  %8 = alloca [2 x ptr], align 16
  %9 = alloca %struct.dir_struct, align 8
  call void @llvm.lifetime.start.p0(i64 312, ptr nonnull %9) #11
  call void @llvm.memset.p0.i64(ptr noundef nonnull align 8 dereferenceable(312) %9, i8 0, i64 312, i1 false)
  %10 = load ptr, ptr @the_repository, align 8, !tbaa !4
  tail call void @repo_config(ptr noundef %10, ptr noundef nonnull @git_default_config, ptr noundef null) #11
  %11 = tail call i32 @parse_options(i32 noundef %0, ptr noundef %1, ptr noundef %2, ptr noundef nonnull @check_ignore_options, ptr noundef nonnull @check_ignore_usage, i32 noundef 0) #11
  %12 = load i32, ptr @stdin_paths, align 4, !tbaa !9
  %.not = icmp eq i32 %12, 0
  br i1 %.not, label %17, label %13

13:                                               ; preds = %4
  %14 = icmp sgt i32 %11, 0
  br i1 %14, label %15, label %25

15:                                               ; preds = %13
  %16 = tail call fastcc ptr @_(ptr noundef nonnull @.str)
  tail call void (ptr, ...) @die(ptr noundef %16) #12
  unreachable

17:                                               ; preds = %4
  %18 = load i32, ptr @nul_term_line, align 4, !tbaa !9
  %.not11 = icmp eq i32 %18, 0
  br i1 %.not11, label %21, label %19

19:                                               ; preds = %17
  %20 = tail call fastcc ptr @_(ptr noundef nonnull @.str.1)
  tail call void (ptr, ...) @die(ptr noundef %20) #12
  unreachable

21:                                               ; preds = %17
  %22 = icmp eq i32 %11, 0
  br i1 %22, label %23, label %25

23:                                               ; preds = %21
  %24 = tail call fastcc ptr @_(ptr noundef nonnull @.str.2)
  tail call void (ptr, ...) @die(ptr noundef %24) #12
  unreachable

25:                                               ; preds = %21, %13
  %26 = load i32, ptr @quiet, align 4, !tbaa !9
  %.not12 = icmp eq i32 %26, 0
  br i1 %.not12, label %._crit_edge, label %28

._crit_edge:                                      ; preds = %25
  %.pre = load i32, ptr @verbose, align 4
  %27 = icmp ne i32 %.pre, 0
  br label %36

28:                                               ; preds = %25
  %29 = icmp sgt i32 %11, 1
  br i1 %29, label %30, label %32

30:                                               ; preds = %28
  %31 = tail call fastcc ptr @_(ptr noundef nonnull @.str.3)
  tail call void (ptr, ...) @die(ptr noundef %31) #12
  unreachable

32:                                               ; preds = %28
  %33 = load i32, ptr @verbose, align 4, !tbaa !9
  %.not13 = icmp eq i32 %33, 0
  br i1 %.not13, label %36, label %34

34:                                               ; preds = %32
  %35 = tail call fastcc ptr @_(ptr noundef nonnull @.str.4)
  tail call void (ptr, ...) @die(ptr noundef %35) #12
  unreachable

36:                                               ; preds = %._crit_edge, %32
  %37 = phi i1 [ %27, %._crit_edge ], [ false, %32 ]
  %38 = load i32, ptr @show_non_matching, align 4, !tbaa !9
  %39 = icmp eq i32 %38, 0
  %or.cond = select i1 %39, i1 true, i1 %37
  br i1 %or.cond, label %42, label %40

40:                                               ; preds = %36
  %41 = tail call fastcc ptr @_(ptr noundef nonnull @.str.5)
  tail call void (ptr, ...) @die(ptr noundef %41) #12
  unreachable

42:                                               ; preds = %36
  %43 = load i32, ptr @no_index, align 4, !tbaa !9
  %.not14 = icmp eq i32 %43, 0
  br i1 %.not14, label %44, label %50

44:                                               ; preds = %42
  %45 = load ptr, ptr @the_repository, align 8, !tbaa !4
  %46 = tail call i32 @repo_read_index(ptr noundef %45) #11
  %47 = icmp slt i32 %46, 0
  br i1 %47, label %48, label %50

48:                                               ; preds = %44
  %49 = tail call fastcc ptr @_(ptr noundef nonnull @.str.6)
  tail call void (ptr, ...) @die(ptr noundef %49) #12
  unreachable

50:                                               ; preds = %44, %42
  call void @setup_standard_excludes(ptr noundef nonnull %9) #11
  %51 = load i32, ptr @stdin_paths, align 4, !tbaa !9
  %.not15 = icmp eq i32 %51, 0
  br i1 %.not15, label %79, label %52

52:                                               ; preds = %50
  call void @llvm.lifetime.start.p0(i64 24, ptr nonnull %6) #11
  call void @llvm.memcpy.p0.p0.i64(ptr noundef nonnull align 8 dereferenceable(24) %6, ptr noundef nonnull align 8 dereferenceable(24) @__const.check_ignore_stdin_paths.unquoted, i64 24, i1 false)
  call void @llvm.lifetime.start.p0(i64 24, ptr nonnull %7) #11
  call void @llvm.memcpy.p0.p0.i64(ptr noundef nonnull align 8 dereferenceable(24) %7, ptr noundef nonnull align 8 dereferenceable(24) @__const.check_ignore_stdin_paths.unquoted, i64 24, i1 false)
  call void @llvm.lifetime.start.p0(i64 16, ptr nonnull %8) #11
  call void @llvm.memset.p0.i64(ptr noundef nonnull align 16 dereferenceable(16) %8, i8 0, i64 16, i1 false)
  %53 = load i32, ptr @nul_term_line, align 4, !tbaa !9
  %.not.i = icmp eq i32 %53, 0
  %54 = select i1 %.not.i, ptr @strbuf_getline_lf, ptr @strbuf_getline_nul
  %55 = load ptr, ptr @stdin, align 8, !tbaa !11
  %56 = call i32 %54(ptr noundef nonnull %6, ptr noundef %55) #11, !callees !13
  %.not48.i = icmp eq i32 %56, -1
  br i1 %.not48.i, label %check_ignore_stdin_paths.exit, label %.lr.ph.i

.lr.ph.i:                                         ; preds = %52
  %57 = getelementptr inbounds nuw i8, ptr %6, i64 16
  %58 = getelementptr inbounds nuw i8, ptr %7, i64 8
  %59 = getelementptr inbounds nuw i8, ptr %7, i64 16
  br label %60

60:                                               ; preds = %72, %.lr.ph.i
  %.09.i = phi i32 [ 0, %.lr.ph.i ], [ %75, %72 ]
  %61 = load i32, ptr @nul_term_line, align 4, !tbaa !9
  %.not5.i = icmp eq i32 %61, 0
  %.pre11.i = load ptr, ptr %57, align 8, !tbaa !14
  br i1 %.not5.i, label %62, label %72

62:                                               ; preds = %60
  %63 = load i8, ptr %.pre11.i, align 1, !tbaa !18
  %64 = icmp eq i8 %63, 34
  br i1 %64, label %65, label %72

65:                                               ; preds = %62
  store i64 0, ptr %58, align 8, !tbaa !19
  %66 = load ptr, ptr %59, align 8, !tbaa !14
  %.not9.i.i = icmp eq ptr %66, @strbuf_slopbuf
  br i1 %.not9.i.i, label %strbuf_setlen.exit.i, label %67

67:                                               ; preds = %65
  store i8 0, ptr %66, align 1, !tbaa !18
  %.pre.i = load ptr, ptr %57, align 8, !tbaa !14
  br label %strbuf_setlen.exit.i

strbuf_setlen.exit.i:                             ; preds = %67, %65
  %68 = phi ptr [ %.pre11.i, %65 ], [ %.pre.i, %67 ]
  %69 = call i32 @unquote_c_style(ptr noundef nonnull %7, ptr noundef %68, ptr noundef null) #11
  %.not6.i = icmp eq i32 %69, 0
  br i1 %.not6.i, label %71, label %70

70:                                               ; preds = %strbuf_setlen.exit.i
  call void (ptr, ...) @die(ptr noundef nonnull @.str.23) #12
  unreachable

71:                                               ; preds = %strbuf_setlen.exit.i
  call void @llvm.lifetime.start.p0(i64 24, ptr nonnull %5)
  call void @llvm.memcpy.p0.p0.i64(ptr noundef nonnull align 16 dereferenceable(24) %5, ptr noundef nonnull align 8 dereferenceable(24) %6, i64 24, i1 false)
  call void @llvm.memcpy.p0.p0.i64(ptr noundef nonnull align 8 dereferenceable(24) %6, ptr noundef nonnull align 8 dereferenceable(24) %7, i64 24, i1 false)
  call void @llvm.memcpy.p0.p0.i64(ptr noundef nonnull align 8 dereferenceable(24) %7, ptr noundef nonnull align 16 dereferenceable(24) %5, i64 24, i1 false)
  call void @llvm.lifetime.end.p0(i64 24, ptr nonnull %5)
  %.pre10.i = load ptr, ptr %57, align 8, !tbaa !14
  br label %72

72:                                               ; preds = %71, %62, %60
  %73 = phi ptr [ %.pre10.i, %71 ], [ %.pre11.i, %62 ], [ %.pre11.i, %60 ]
  store ptr %73, ptr %8, align 16, !tbaa !20
  %74 = call fastcc i32 @check_ignore(ptr noundef nonnull %9, ptr noundef %2, i32 noundef 1, ptr noundef nonnull %8)
  %75 = add nsw i32 %74, %.09.i
  %76 = load ptr, ptr @stdout, align 8, !tbaa !11
  call void @maybe_flush_or_die(ptr noundef %76, ptr noundef nonnull @.str.24) #11
  %77 = load ptr, ptr @stdin, align 8, !tbaa !11
  %78 = call i32 %54(ptr noundef nonnull %6, ptr noundef %77) #11, !callees !13
  %.not4.i = icmp eq i32 %78, -1
  br i1 %.not4.i, label %check_ignore_stdin_paths.exit, label %60, !llvm.loop !21

check_ignore_stdin_paths.exit:                    ; preds = %72, %52
  %.0.lcssa.i = phi i32 [ 0, %52 ], [ %75, %72 ]
  call void @strbuf_release(ptr noundef nonnull %6) #11
  call void @strbuf_release(ptr noundef nonnull %7) #11
  call void @llvm.lifetime.end.p0(i64 16, ptr nonnull %8) #11
  call void @llvm.lifetime.end.p0(i64 24, ptr nonnull %7) #11
  call void @llvm.lifetime.end.p0(i64 24, ptr nonnull %6) #11
  br label %82

79:                                               ; preds = %50
  %80 = call fastcc i32 @check_ignore(ptr noundef %9, ptr noundef %2, i32 noundef %11, ptr noundef %1)
  %81 = load ptr, ptr @stdout, align 8, !tbaa !11
  call void @maybe_flush_or_die(ptr noundef %81, ptr noundef nonnull @.str.7) #11
  br label %82

82:                                               ; preds = %79, %check_ignore_stdin_paths.exit
  %.0 = phi i32 [ %.0.lcssa.i, %check_ignore_stdin_paths.exit ], [ %80, %79 ]
  call void @dir_clear(ptr noundef nonnull %9) #11
  %.not16 = icmp eq i32 %.0, 0
  %83 = zext i1 %.not16 to i32
  call void @llvm.lifetime.end.p0(i64 312, ptr nonnull %9) #11
  ret i32 %83
}